target datalayout = "e-m:e-p270:32:32-p271:32:32-p272:64:64-i64:64-i128:128-f80:128-n8:16:32:64-S128"
target triple = "x86_64-pc-linux-gnu"

%struct._object = type { %union.anon, ptr }
%union.anon = type { i64 }
%struct._err_stackitem = type { ptr, ptr }
%union._PyStackRef = type { i64 }
%struct._PyInterpreterFrame = type { %union._PyStackRef, ptr, %union._PyStackRef, ptr, ptr, ptr, ptr, ptr, ptr, i16, i8, i8, [1 x %union._PyStackRef] }
%struct.anon = type { i32, i32 }
%struct._PyAsyncGenObject = type { %struct._object, ptr, ptr, ptr, %struct._err_stackitem, ptr, i8, i8, i8, i8, %struct._PyInterpreterFrame }
%struct.PyAsyncGenAThrow = type { %struct._object, ptr, ptr, i32 }

@PyExc_StopIteration = external global ptr, align 8
@PyExc_GeneratorExit = external global ptr, align 8
@ASYNC_GEN_IGNORED_EXIT_MSG = internal global ptr @.str.22, align 8
@PyExc_RuntimeError = external global ptr, align 8
@PyExc_StopAsyncIteration = external global ptr, align 8
@.str.25 = private unnamed_addr constant [6 x i8] c"throw\00", align 1
@PyExc_DeprecationWarning = external global ptr, align 8
@.str.31 = private unnamed_addr constant [94 x i8] c"the (type, exc, tb) signature of throw() is deprecated, use the single-arg signature instead.\00", align 1
@.str.80 = private unnamed_addr constant [47 x i8] c"cannot reuse already awaited aclose()/athrow()\00", align 1
@.str.81 = private unnamed_addr constant [52 x i8] c"aclose(): asynchronous generator is already running\00", align 1
@.str.82 = private unnamed_addr constant [52 x i8] c"athrow(): asynchronous generator is already running\00", align 1

; Function Attrs: alwaysinline nounwind uwtable
define internal i32 @_Py_IsImmortal(ptr noundef %0) #3 {
  %2 = alloca ptr, align 8
  store ptr %0, ptr %2, align 8, !tbaa !11
  %3 = load ptr, ptr %2, align 8, !tbaa !11
  %4 = getelementptr inbounds nuw %struct._object, ptr %3, i32 0, i32 0
  %5 = getelementptr inbounds nuw %struct.anon, ptr %4, i32 0, i32 0
  %6 = load i32, ptr %5, align 8, !tbaa !13
  %7 = icmp slt i32 %6, 0
  %8 = zext i1 %7 to i32
  ret i32 %8
}

; Function Attrs: inlinehint nounwind uwtable
define internal ptr @_Py_TYPE(ptr noundef %0) #2 {
  %2 = alloca ptr, align 8
  store ptr %0, ptr %2, align 8, !tbaa !11
  %3 = load ptr, ptr %2, align 8, !tbaa !11
  %4 = getelementptr inbounds nuw %struct._object, ptr %3, i32 0, i32 1
  %5 = load ptr, ptr %4, align 8, !tbaa !92
  ret ptr %5
}

; Function Attrs: alwaysinline nounwind uwtable
define internal void @Py_DECREF(ptr noundef %0) #3 {
  %2 = alloca ptr, align 8
  store ptr %0, ptr %2, align 8, !tbaa !11
  %3 = load ptr, ptr %2, align 8, !tbaa !11
  %4 = call i32 @_Py_IsImmortal(ptr noundef %3)
  %5 = icmp ne i32 %4, 0
  br i1 %5, label %6, label %7

6:                                                ; preds = %1
  br label %16

7:                                                ; preds = %1
  %8 = load ptr, ptr %2, align 8, !tbaa !11
  %9 = getelementptr inbounds nuw %struct._object, ptr %8, i32 0, i32 0
  %10 = getelementptr inbounds nuw %struct.anon, ptr %9, i32 0, i32 0
  %11 = load i32, ptr %10, align 8, !tbaa !13
  %12 = add i32 %11, -1
  store i32 %12, ptr %10, align 8, !tbaa !13
  %13 = icmp eq i32 %12, 0
  br i1 %13, label %14, label %16

14:                                               ; preds = %7
  %15 = load ptr, ptr %2, align 8, !tbaa !11
  call void @_Py_Dealloc(ptr noundef %15)
  br label %16

16:                                               ; preds = %6, %14, %7
  ret void
}

; Function Attrs: inlinehint nounwind uwtable
define internal i32 @Py_IS_TYPE(ptr noundef %0, ptr noundef %1) #2 {
  %3 = alloca ptr, align 8
  %4 = alloca ptr, align 8
  store ptr %0, ptr %3, align 8, !tbaa !11
  store ptr %1, ptr %4, align 8, !tbaa !36
  %5 = load ptr, ptr %3, align 8, !tbaa !11
  %6 = call ptr @_Py_TYPE(ptr noundef %5)
  %7 = load ptr, ptr %4, align 8, !tbaa !36
  %8 = icmp eq ptr %6, %7
  %9 = zext i1 %8 to i32
  ret i32 %9
}

; Function Attrs: nounwind uwtable
define internal ptr @gen_throw(ptr noundef %0, ptr noundef %1, i64 noundef %2) #0 {
  %4 = alloca ptr, align 8
  %5 = alloca ptr, align 8
  %6 = alloca ptr, align 8
  %7 = alloca i64, align 8
  %8 = alloca ptr, align 8
  %9 = alloca ptr, align 8
  %10 = alloca ptr, align 8
  %11 = alloca i32, align 4
  store ptr %0, ptr %5, align 8, !tbaa !4
  store ptr %1, ptr %6, align 8, !tbaa !43
  store i64 %2, ptr %7, align 8, !tbaa !187
  call void @llvm.lifetime.start.p0(i64 8, ptr %8) #7
  call void @llvm.lifetime.start.p0(i64 8, ptr %9) #7
  store ptr null, ptr %9, align 8, !tbaa !11
  call void @llvm.lifetime.start.p0(i64 8, ptr %10) #7
  store ptr null, ptr %10, align 8, !tbaa !11
  %12 = load i64, ptr %7, align 8, !tbaa !187
  %13 = icmp sle i64 1, %12
  br i1 %13, label %14, label %17

14:                                               ; preds = %3
  %15 = load i64, ptr %7, align 8, !tbaa !187
  %16 = icmp sle i64 %15, 3
  br i1 %16, label %22, label %17

17:                                               ; preds = %14, %3
  %18 = load i64, ptr %7, align 8, !tbaa !187
  %19 = call i32 @_PyArg_CheckPositional(ptr noundef @.str.25, i64 noundef %18, i64 noundef 1, i64 noundef 3)
  %20 = icmp ne i32 %19, 0
  br i1 %20, label %22, label %21

21:                                               ; preds = %17
  store ptr null, ptr %4, align 8
  store i32 1, ptr %11, align 4
  br label %58

22:                                               ; preds = %17, %14
  %23 = load i64, ptr %7, align 8, !tbaa !187
  %24 = icmp sgt i64 %23, 1
  br i1 %24, label %25, label %31

25:                                               ; preds = %22
  %26 = load ptr, ptr @PyExc_DeprecationWarning, align 8, !tbaa !11
  %27 = call i32 @PyErr_WarnEx(ptr noundef %26, ptr noundef @.str.31, i64 noundef 1)
  %28 = icmp slt i32 %27, 0
  br i1 %28, label %29, label %30

29:                                               ; preds = %25
  store ptr null, ptr %4, align 8
  store i32 1, ptr %11, align 4
  br label %58

30:                                               ; preds = %25
  br label %31

31:                                               ; preds = %30, %22
  %32 = load ptr, ptr %6, align 8, !tbaa !43
  %33 = getelementptr ptr, ptr %32, i64 0
  %34 = load ptr, ptr %33, align 8, !tbaa !11
  store ptr %34, ptr %8, align 8, !tbaa !11
  %35 = load i64, ptr %7, align 8, !tbaa !187
  %36 = icmp eq i64 %35, 3
  br i1 %36, label %37, label %44

37:                                               ; preds = %31
  %38 = load ptr, ptr %6, align 8, !tbaa !43
  %39 = getelementptr ptr, ptr %38, i64 1
  %40 = load ptr, ptr %39, align 8, !tbaa !11
  store ptr %40, ptr %10, align 8, !tbaa !11
  %41 = load ptr, ptr %6, align 8, !tbaa !43
  %42 = getelementptr ptr, ptr %41, i64 2
  %43 = load ptr, ptr %42, align 8, !tbaa !11
  store ptr %43, ptr %9, align 8, !tbaa !11
  br label %52

44:                                               ; preds = %31
  %45 = load i64, ptr %7, align 8, !tbaa !187
  %46 = icmp eq i64 %45, 2
  br i1 %46, label %47, label %51

47:                                               ; preds = %44
  %48 = load ptr, ptr %6, align 8, !tbaa !43
  %49 = getelementptr ptr, ptr %48, i64 1
  %50 = load ptr, ptr %49, align 8, !tbaa !11
  store ptr %50, ptr %10, align 8, !tbaa !11
  br label %51

51:                                               ; preds = %47, %44
  br label %52

52:                                               ; preds = %51, %37
  %53 = load ptr, ptr %5, align 8, !tbaa !4
  %54 = load ptr, ptr %8, align 8, !tbaa !11
  %55 = load ptr, ptr %10, align 8, !tbaa !11
  %56 = load ptr, ptr %9, align 8, !tbaa !11
  %57 = call ptr @_gen_throw(ptr noundef %53, i32 noundef 1, ptr noundef %54, ptr noundef %55, ptr noundef %56)
  store ptr %57, ptr %4, align 8
  store i32 1, ptr %11, align 4
  br label %58

58:                                               ; preds = %52, %29, %21
  call void @llvm.lifetime.end.p0(i64 8, ptr %10) #7
  call void @llvm.lifetime.end.p0(i64 8, ptr %9) #7
  call void @llvm.lifetime.end.p0(i64 8, ptr %8) #7
  %59 = load ptr, ptr %4, align 8
  ret ptr %59
}

; Function Attrs: nounwind uwtable
define internal ptr @async_gen_athrow_throw(ptr noundef %0, ptr noundef %1, i64 noundef %2) #0 {
  %4 = alloca ptr, align 8
  %5 = alloca ptr, align 8
  %6 = alloca ptr, align 8
  %7 = alloca i64, align 8
  %8 = alloca ptr, align 8
  %9 = alloca i32, align 4
  %10 = alloca ptr, align 8
  store ptr %0, ptr %5, align 8, !tbaa !11
  store ptr %1, ptr %6, align 8, !tbaa !43
  store i64 %2, ptr %7, align 8, !tbaa !187
  call void @llvm.lifetime.start.p0(i64 8, ptr %8) #7
  %11 = load ptr, ptr %5, align 8, !tbaa !11
  store ptr %11, ptr %8, align 8, !tbaa !189
  %12 = load ptr, ptr %8, align 8, !tbaa !189
  %13 = getelementptr inbounds nuw %struct.PyAsyncGenAThrow, ptr %12, i32 0, i32 3
  %14 = load i32, ptr %13, align 8, !tbaa !194
  %15 = icmp eq i32 %14, 2
  br i1 %15, label %16, label %18

16:                                               ; preds = %3
  %17 = load ptr, ptr @PyExc_RuntimeError, align 8, !tbaa !11
  call void @PyErr_SetString(ptr noundef %17, ptr noundef @.str.80)
  store ptr null, ptr %4, align 8
  store i32 1, ptr %9, align 4
  br label %117

18:                                               ; preds = %3
  %19 = load ptr, ptr %8, align 8, !tbaa !189
  %20 = getelementptr inbounds nuw %struct.PyAsyncGenAThrow, ptr %19, i32 0, i32 3
  %21 = load i32, ptr %20, align 8, !tbaa !194
  %22 = icmp eq i32 %21, 0
  br i1 %22, label %23, label %49

23:                                               ; preds = %18
  %24 = load ptr, ptr %8, align 8, !tbaa !189
  %25 = getelementptr inbounds nuw %struct.PyAsyncGenAThrow, ptr %24, i32 0, i32 1
  %26 = load ptr, ptr %25, align 8, !tbaa !191
  %27 = getelementptr inbounds nuw %struct._PyAsyncGenObject, ptr %26, i32 0, i32 8
  %28 = load i8, ptr %27, align 2, !tbaa !56
  %29 = icmp ne i8 %28, 0
  br i1 %29, label %30, label %42

30:                                               ; preds = %23
  %31 = load ptr, ptr %8, align 8, !tbaa !189
  %32 = getelementptr inbounds nuw %struct.PyAsyncGenAThrow, ptr %31, i32 0, i32 3
  store i32 2, ptr %32, align 8, !tbaa !194
  %33 = load ptr, ptr %8, align 8, !tbaa !189
  %34 = getelementptr inbounds nuw %struct.PyAsyncGenAThrow, ptr %33, i32 0, i32 2
  %35 = load ptr, ptr %34, align 8, !tbaa !193
  %36 = icmp eq ptr %35, null
  br i1 %36, label %37, label %39

37:                                               ; preds = %30
  %38 = load ptr, ptr @PyExc_RuntimeError, align 8, !tbaa !11
  call void @PyErr_SetString(ptr noundef %38, ptr noundef @.str.81)
  br label %41

39:                                               ; preds = %30
  %40 = load ptr, ptr @PyExc_RuntimeError, align 8, !tbaa !11
  call void @PyErr_SetString(ptr noundef %40, ptr noundef @.str.82)
  br label %41

41:                                               ; preds = %39, %37
  store ptr null, ptr %4, align 8
  store i32 1, ptr %9, align 4
  br label %117

42:                                               ; preds = %23
  %43 = load ptr, ptr %8, align 8, !tbaa !189
  %44 = getelementptr inbounds nuw %struct.PyAsyncGenAThrow, ptr %43, i32 0, i32 3
  store i32 1, ptr %44, align 8, !tbaa !194
  %45 = load ptr, ptr %8, align 8, !tbaa !189
  %46 = getelementptr inbounds nuw %struct.PyAsyncGenAThrow, ptr %45, i32 0, i32 1
  %47 = load ptr, ptr %46, align 8, !tbaa !191
  %48 = getelementptr inbounds nuw %struct._PyAsyncGenObject, ptr %47, i32 0, i32 8
  store i8 1, ptr %48, align 2, !tbaa !56
  br label %49

49:                                               ; preds = %42, %18
  call void @llvm.lifetime.start.p0(i64 8, ptr %10) #7
  %50 = load ptr, ptr %8, align 8, !tbaa !189
  %51 = getelementptr inbounds nuw %struct.PyAsyncGenAThrow, ptr %50, i32 0, i32 1
  %52 = load ptr, ptr %51, align 8, !tbaa !191
  %53 = load ptr, ptr %6, align 8, !tbaa !43
  %54 = load i64, ptr %7, align 8, !tbaa !187
  %55 = call ptr @gen_throw(ptr noundef %52, ptr noundef %53, i64 noundef %54)
  store ptr %55, ptr %10, align 8, !tbaa !11
  %56 = load ptr, ptr %8, align 8, !tbaa !189
  %57 = getelementptr inbounds nuw %struct.PyAsyncGenAThrow, ptr %56, i32 0, i32 2
  %58 = load ptr, ptr %57, align 8, !tbaa !193
  %59 = icmp ne ptr %58, null
  br i1 %59, label %60, label %77

60:                                               ; preds = %49
  %61 = load ptr, ptr %8, align 8, !tbaa !189
  %62 = getelementptr inbounds nuw %struct.PyAsyncGenAThrow, ptr %61, i32 0, i32 1
  %63 = load ptr, ptr %62, align 8, !tbaa !191
  %64 = load ptr, ptr %10, align 8, !tbaa !11
  %65 = call ptr @async_gen_unwrap_value(ptr noundef %63, ptr noundef %64)
  store ptr %65, ptr %10, align 8, !tbaa !11
  %66 = load ptr, ptr %10, align 8, !tbaa !11
  %67 = icmp eq ptr %66, null
  br i1 %67, label %68, label %75

68:                                               ; preds = %60
  %69 = load ptr, ptr %8, align 8, !tbaa !189
  %70 = getelementptr inbounds nuw %struct.PyAsyncGenAThrow, ptr %69, i32 0, i32 1
  %71 = load ptr, ptr %70, align 8, !tbaa !191
  %72 = getelementptr inbounds nuw %struct._PyAsyncGenObject, ptr %71, i32 0, i32 8
  store i8 0, ptr %72, align 2, !tbaa !56
  %73 = load ptr, ptr %8, align 8, !tbaa !189
  %74 = getelementptr inbounds nuw %struct.PyAsyncGenAThrow, ptr %73, i32 0, i32 3
  store i32 2, ptr %74, align 8, !tbaa !194
  br label %75

75:                                               ; preds = %68, %60
  %76 = load ptr, ptr %10, align 8, !tbaa !11
  store ptr %76, ptr %4, align 8
  store i32 1, ptr %9, align 4
  br label %116

77:                                               ; preds = %49
  %78 = load ptr, ptr %10, align 8, !tbaa !11
  %79 = icmp ne ptr %78, null
  br i1 %79, label %80, label %94

80:                                               ; preds = %77
  %81 = load ptr, ptr %10, align 8, !tbaa !11
  %82 = call i32 @Py_IS_TYPE(ptr noundef %81, ptr noundef @_PyAsyncGenWrappedValue_Type)
  %83 = icmp ne i32 %82, 0
  br i1 %83, label %84, label %94

84:                                               ; preds = %80
  %85 = load ptr, ptr %8, align 8, !tbaa !189
  %86 = getelementptr inbounds nuw %struct.PyAsyncGenAThrow, ptr %85, i32 0, i32 1
  %87 = load ptr, ptr %86, align 8, !tbaa !191
  %88 = getelementptr inbounds nuw %struct._PyAsyncGenObject, ptr %87, i32 0, i32 8
  store i8 0, ptr %88, align 2, !tbaa !56
  %89 = load ptr, ptr %8, align 8, !tbaa !189
  %90 = getelementptr inbounds nuw %struct.PyAsyncGenAThrow, ptr %89, i32 0, i32 3
  store i32 2, ptr %90, align 8, !tbaa !194
  %91 = load ptr, ptr %10, align 8, !tbaa !11
  call void @Py_DECREF(ptr noundef %91)
  %92 = load ptr, ptr @PyExc_RuntimeError, align 8, !tbaa !11
  %93 = load ptr, ptr @ASYNC_GEN_IGNORED_EXIT_MSG, align 8, !tbaa !39
  call void @PyErr_SetString(ptr noundef %92, ptr noundef %93)
  store ptr null, ptr %4, align 8
  store i32 1, ptr %9, align 4
  br label %116

94:                                               ; preds = %80, %77
  %95 = load ptr, ptr %10, align 8, !tbaa !11
  %96 = icmp eq ptr %95, null
  br i1 %96, label %97, label %104

97:                                               ; preds = %94
  %98 = load ptr, ptr %8, align 8, !tbaa !189
  %99 = getelementptr inbounds nuw %struct.PyAsyncGenAThrow, ptr %98, i32 0, i32 1
  %100 = load ptr, ptr %99, align 8, !tbaa !191
  %101 = getelementptr inbounds nuw %struct._PyAsyncGenObject, ptr %100, i32 0, i32 8
  store i8 0, ptr %101, align 2, !tbaa !56
  %102 = load ptr, ptr %8, align 8, !tbaa !189
  %103 = getelementptr inbounds nuw %struct.PyAsyncGenAThrow, ptr %102, i32 0, i32 3
  store i32 2, ptr %103, align 8, !tbaa !194
  br label %104

104:                                              ; preds = %97, %94
  %105 = load ptr, ptr @PyExc_StopAsyncIteration, align 8, !tbaa !11
  %106 = call i32 @PyErr_ExceptionMatches(ptr noundef %105)
  %107 = icmp ne i32 %106, 0
  br i1 %107, label %112, label %108

108:                                              ; preds = %104
  %109 = load ptr, ptr @PyExc_GeneratorExit, align 8, !tbaa !11
  %110 = call i32 @PyErr_ExceptionMatches(ptr noundef %109)
  %111 = icmp ne i32 %110, 0
  br i1 %111, label %112, label %114

112:                                              ; preds = %108, %104
  call void @PyErr_Clear()
  %113 = load ptr, ptr @PyExc_StopIteration, align 8, !tbaa !11
  call void @PyErr_SetNone(ptr noundef %113)
  br label %114

114:                                              ; preds = %112, %108
  %115 = load ptr, ptr %10, align 8, !tbaa !11
  store ptr %115, ptr %4, align 8
  store i32 1, ptr %9, align 4
  br label %116

116:                                              ; preds = %114, %84, %75
  call void @llvm.lifetime.end.p0(i64 8, ptr %10) #7
  br label %117

117:                                              ; preds = %116, %41, %16
  call void @llvm.lifetime.end.p0(i64 8, ptr %8) #7
  %118 = load ptr, ptr %4, align 8
  ret ptr %118
}