; Function Attrs: nounwind uwtable
define internal ptr @async_gen_athrow_throw(ptr noundef captures(none) %0, ptr noundef readonly captures(none) %1, i64 noundef %2) #2 {
  %4 = getelementptr inbounds nuw i8, ptr %0, i64 32
  %5 = load i32, ptr %4, align 8, !tbaa !176
  switch i32 %5, label %._crit_edge [
    i32 2, label %6
    i32 0, label %8
  ]

._crit_edge:                                      ; preds = %3
  %.phi.trans.insert = getelementptr inbounds nuw i8, ptr %0, i64 16
  %.pre = load ptr, ptr %.phi.trans.insert, align 8, !tbaa !173
  br label %21

6:                                                ; preds = %3
  %7 = load ptr, ptr @PyExc_RuntimeError, align 8, !tbaa !32
  tail call void @PyErr_SetString(ptr noundef %7, ptr noundef nonnull @.str.80) #8
  br label %77

8:                                                ; preds = %3
  %9 = getelementptr inbounds nuw i8, ptr %0, i64 16
  %10 = load ptr, ptr %9, align 8, !tbaa !173
  %11 = getelementptr inbounds nuw i8, ptr %10, i64 66
  %12 = load i8, ptr %11, align 2, !tbaa !170
  %.not = icmp eq i8 %12, 0
  br i1 %.not, label %20, label %13

13:                                               ; preds = %8
  store i32 2, ptr %4, align 8, !tbaa !176
  %14 = getelementptr inbounds nuw i8, ptr %0, i64 24
  %15 = load ptr, ptr %14, align 8, !tbaa !175
  %16 = icmp eq ptr %15, null
  %17 = load ptr, ptr @PyExc_RuntimeError, align 8, !tbaa !32
  br i1 %16, label %18, label %19

18:                                               ; preds = %13
  tail call void @PyErr_SetString(ptr noundef %17, ptr noundef nonnull @.str.81) #8
  br label %77

19:                                               ; preds = %13
  tail call void @PyErr_SetString(ptr noundef %17, ptr noundef nonnull @.str.82) #8
  br label %77

20:                                               ; preds = %8
  store i32 1, ptr %4, align 8, !tbaa !176
  store i8 1, ptr %11, align 2, !tbaa !170
  br label %21

21:                                               ; preds = %._crit_edge, %20
  %22 = phi ptr [ %.pre, %._crit_edge ], [ %10, %20 ]
  %23 = getelementptr inbounds nuw i8, ptr %0, i64 16
  %24 = add i64 %2, -1
  %or.cond.i = icmp ult i64 %24, 3
  br i1 %or.cond.i, label %27, label %25

25:                                               ; preds = %21
  %26 = tail call i32 @_PyArg_CheckPositional(ptr noundef nonnull @.str.25, i64 noundef %2, i64 noundef 1, i64 noundef 3) #8
  %.not.i34 = icmp eq i32 %26, 0
  br i1 %.not.i34, label %gen_throw.exit, label %27

27:                                               ; preds = %25, %21
  %28 = icmp sgt i64 %2, 1
  br i1 %28, label %29, label %33

29:                                               ; preds = %27
  %30 = load ptr, ptr @PyExc_DeprecationWarning, align 8, !tbaa !32
  %31 = tail call i32 @PyErr_WarnEx(ptr noundef %30, ptr noundef nonnull @.str.31, i64 noundef 1) #8
  %32 = icmp slt i32 %31, 0
  br i1 %32, label %gen_throw.exit, label %33

33:                                               ; preds = %29, %27
  %34 = load ptr, ptr %1, align 8, !tbaa !32
  switch i64 %2, label %43 [
    i64 3, label %35
    i64 2, label %40
  ]

35:                                               ; preds = %33
  %36 = getelementptr i8, ptr %1, i64 8
  %37 = load ptr, ptr %36, align 8, !tbaa !32
  %38 = getelementptr i8, ptr %1, i64 16
  %39 = load ptr, ptr %38, align 8, !tbaa !32
  br label %43

40:                                               ; preds = %33
  %41 = getelementptr i8, ptr %1, i64 8
  %42 = load ptr, ptr %41, align 8, !tbaa !32
  br label %43

43:                                               ; preds = %40, %35, %33
  %.015.i = phi ptr [ %39, %35 ], [ null, %40 ], [ null, %33 ]
  %.0.i = phi ptr [ %37, %35 ], [ %42, %40 ], [ null, %33 ]
  %44 = tail call fastcc ptr @_gen_throw(ptr noundef %22, i32 noundef 1, ptr noundef %34, ptr noundef %.0.i, ptr noundef %.015.i)
  br label %gen_throw.exit

gen_throw.exit:                                   ; preds = %25, %29, %43
  %.016.i = phi ptr [ %44, %43 ], [ null, %25 ], [ null, %29 ]
  %45 = getelementptr inbounds nuw i8, ptr %0, i64 24
  %46 = load ptr, ptr %45, align 8, !tbaa !175
  %.not29 = icmp eq ptr %46, null
  br i1 %.not29, label %54, label %47

47:                                               ; preds = %gen_throw.exit
  %48 = load ptr, ptr %23, align 8, !tbaa !173
  %49 = tail call fastcc ptr @async_gen_unwrap_value(ptr noundef %48, ptr noundef %.016.i)
  %50 = icmp eq ptr %49, null
  br i1 %50, label %51, label %77

51:                                               ; preds = %47
  %52 = load ptr, ptr %23, align 8, !tbaa !173
  %53 = getelementptr inbounds nuw i8, ptr %52, i64 66
  store i8 0, ptr %53, align 2, !tbaa !170
  store i32 2, ptr %4, align 8, !tbaa !176
  br label %77

54:                                               ; preds = %gen_throw.exit
  %cond = icmp eq ptr %.016.i, null
  br i1 %cond, label %66, label %55

55:                                               ; preds = %54
  %56 = getelementptr i8, ptr %.016.i, i64 8
  %.val = load ptr, ptr %56, align 8, !tbaa !20
  %.not35 = icmp eq ptr %.val, @_PyAsyncGenWrappedValue_Type
  br i1 %.not35, label %57, label %69

57:                                               ; preds = %55
  %58 = load ptr, ptr %23, align 8, !tbaa !173
  %59 = getelementptr inbounds nuw i8, ptr %58, i64 66
  store i8 0, ptr %59, align 2, !tbaa !170
  store i32 2, ptr %4, align 8, !tbaa !176
  %60 = load i32, ptr %.016.i, align 8, !tbaa !4
  %.not.i = icmp sgt i32 %60, -1
  br i1 %.not.i, label %61, label %Py_DECREF.exit

61:                                               ; preds = %57
  %62 = add nsw i32 %60, -1
  store i32 %62, ptr %.016.i, align 8, !tbaa !4
  %63 = icmp eq i32 %62, 0
  br i1 %63, label %64, label %Py_DECREF.exit

64:                                               ; preds = %61
  tail call void @_Py_Dealloc(ptr noundef nonnull %.016.i) #8
  br label %Py_DECREF.exit

Py_DECREF.exit:                                   ; preds = %57, %61, %64
  %65 = load ptr, ptr @PyExc_RuntimeError, align 8, !tbaa !32
  tail call void @PyErr_SetString(ptr noundef %65, ptr noundef nonnull @.str.22) #8
  br label %77

66:                                               ; preds = %54
  %67 = load ptr, ptr %23, align 8, !tbaa !173
  %68 = getelementptr inbounds nuw i8, ptr %67, i64 66
  store i8 0, ptr %68, align 2, !tbaa !170
  store i32 2, ptr %4, align 8, !tbaa !176
  br label %69

69:                                               ; preds = %55, %66
  %70 = load ptr, ptr @PyExc_StopAsyncIteration, align 8, !tbaa !32
  %71 = tail call i32 @PyErr_ExceptionMatches(ptr noundef %70) #8
  %.not32 = icmp eq i32 %71, 0
  br i1 %.not32, label %72, label %75

72:                                               ; preds = %69
  %73 = load ptr, ptr @PyExc_GeneratorExit, align 8, !tbaa !32
  %74 = tail call i32 @PyErr_ExceptionMatches(ptr noundef %73) #8
  %.not33 = icmp eq i32 %74, 0
  br i1 %.not33, label %77, label %75

75:                                               ; preds = %72, %69
  tail call void @PyErr_Clear() #8
  %76 = load ptr, ptr @PyExc_StopIteration, align 8, !tbaa !32
  tail call void @PyErr_SetNone(ptr noundef %76) #8
  br label %77

77:                                               ; preds = %Py_DECREF.exit, %51, %47, %75, %72, %18, %19, %6
  %.0 = phi ptr [ null, %6 ], [ null, %19 ], [ null, %18 ], [ null, %Py_DECREF.exit ], [ null, %51 ], [ %49, %47 ], [ %.016.i, %75 ], [ %.016.i, %72 ]
  ret ptr %.0
}